; Function Attrs: mustprogress uwtable
define dso_local void @_ZN4pbrt3GUI19mouseButtonCallbackEP10GLFWwindowiii(ptr noundef nonnull align 8 dereferenceable(248) %0, ptr noundef %1, i32 noundef %2, i32 noundef %3, i32 noundef %4) local_unnamed_addr #1 align 2 {
  %6 = icmp eq i32 %2, 0
  %7 = icmp eq i32 %3, 1
  %or.cond = and i1 %6, %7
  br i1 %or.cond, label %8, label %12

8:                                                ; preds = %5
  %9 = getelementptr inbounds nuw i8, ptr %0, i64 204
  store i8 1, ptr %9, align 4, !tbaa !47
  %10 = getelementptr inbounds nuw i8, ptr %0, i64 216
  %11 = getelementptr inbounds nuw i8, ptr %0, i64 224
  tail call void @glfwGetCursorPos(ptr noundef %1, ptr noundef nonnull %10, ptr noundef nonnull %11)
  br label %12

12:                                               ; preds = %8, %5
  %13 = or i32 %3, %2
  %or.cond3 = icmp eq i32 %13, 0
  br i1 %or.cond3, label %14, label %16

14:                                               ; preds = %12
  %15 = getelementptr inbounds nuw i8, ptr %0, i64 204
  store i8 0, ptr %15, align 4, !tbaa !47
  br label %16

16:                                               ; preds = %14, %12
  ret void
}